; Function Attrs: mustprogress uwtable
define hidden noundef zeroext i1 @_ZN2qe16i_solver_context10has_pluginEP3app(ptr nocapture noundef nonnull readonly align 8 dereferenceable(48) %this, ptr noundef nonnull %x) local_unnamed_addr #3 align 2 {
entry:
  %call = tail call noundef ptr @_ZNK4expr8get_sortEv(ptr noundef nonnull align 4 dereferenceable(16) %x)
  %m_info.i = getelementptr inbounds i8, ptr %call, i64 24
  %0 = load ptr, ptr %m_info.i, align 8
  %cmp.i = icmp eq ptr %0, null
  br i1 %cmp.i, label %land.end, label %_ZNK4decl13get_family_idEv.exit

_ZNK4decl13get_family_idEv.exit:                  ; preds = %entry
  %1 = load i32, ptr %0, align 8
  %cmp = icmp sgt i32 %1, -1
  br i1 %cmp, label %land.lhs.true, label %land.end

land.lhs.true:                                    ; preds = %_ZNK4decl13get_family_idEv.exit
  %m_plugins = getelementptr inbounds i8, ptr %this, i64 40
  %2 = load ptr, ptr %m_plugins, align 8
  %cmp.i3 = icmp eq ptr %2, null
  br i1 %cmp.i3, label %land.end, label %_ZNK6vectorIPN2qe16qe_solver_pluginELb0EjE4sizeEv.exit

_ZNK6vectorIPN2qe16qe_solver_pluginELb0EjE4sizeEv.exit: ; preds = %land.lhs.true
  %arrayidx.i = getelementptr inbounds i8, ptr %2, i64 -4
  %3 = load i32, ptr %arrayidx.i, align 4
  %cmp4 = icmp slt i32 %1, %3
  br i1 %cmp4, label %land.rhs, label %land.end

land.rhs:                                         ; preds = %_ZNK6vectorIPN2qe16qe_solver_pluginELb0EjE4sizeEv.exit
  %idxprom.i = zext nneg i32 %1 to i64
  %arrayidx.i4 = getelementptr inbounds ptr, ptr %2, i64 %idxprom.i
  %4 = load ptr, ptr %arrayidx.i4, align 8
  %cmp7 = icmp ne ptr %4, null
  br label %land.end

land.end:                                         ; preds = %land.lhs.true, %entry, %land.rhs, %_ZNK6vectorIPN2qe16qe_solver_pluginELb0EjE4sizeEv.exit, %_ZNK4decl13get_family_idEv.exit
  %5 = phi i1 [ false, %_ZNK6vectorIPN2qe16qe_solver_pluginELb0EjE4sizeEv.exit ], [ false, %_ZNK4decl13get_family_idEv.exit ], [ %cmp7, %land.rhs ], [ false, %entry ], [ false, %land.lhs.true ]
  ret i1 %5
}